; Function Attrs: mustprogress uwtable
define void @_ZN3gmx6Update21update_sd_second_halfERK10t_inputreclPfiNS_8ArrayRefIK12ParticleTypeEENS5_IKfEEP7t_statePK9t_commrecP6t_nrnbP13gmx_wallcyclePNS_11ConstraintsEbb(ptr nocapture noundef nonnull readonly align 8 dereferenceable(8) %0, ptr noundef nonnull align 8 dereferenceable(856) %1, i64 noundef %2, ptr noundef %3, i32 noundef %4, ptr nocapture noundef readonly byval(%"class.gmx::ArrayRef.97") align 8 %5, ptr nocapture noundef readonly byval(%"class.gmx::ArrayRef.100") align 8 %6, ptr noundef %7, ptr noundef %8, ptr nocapture noundef %9, ptr noundef %10, ptr noundef %11, i1 noundef zeroext %12, i1 noundef zeroext %13) local_unnamed_addr #0 align 2 {
  %15 = alloca %"class.gmx::ArrayRef.97", align 8
  %16 = alloca %"class.gmx::ArrayRef.100", align 8
  %17 = load ptr, ptr %0, align 8
  %18 = load ptr, ptr %5, align 8
  store ptr %18, ptr %15, align 8
  %19 = getelementptr inbounds i8, ptr %15, i64 8
  %20 = getelementptr inbounds i8, ptr %5, i64 8
  %21 = load ptr, ptr %20, align 8
  %22 = ptrtoint ptr %21 to i64
  %23 = ptrtoint ptr %18 to i64
  %24 = sub i64 %22, %23
  %25 = getelementptr inbounds i8, ptr %18, i64 %24
  store ptr %25, ptr %19, align 8
  %26 = load ptr, ptr %6, align 8
  store ptr %26, ptr %16, align 8
  %27 = getelementptr inbounds i8, ptr %16, i64 8
  %28 = getelementptr inbounds i8, ptr %6, i64 8
  %29 = load ptr, ptr %28, align 8
  %30 = ptrtoint ptr %29 to i64
  %31 = ptrtoint ptr %26 to i64
  %32 = sub i64 %30, %31
  %33 = getelementptr inbounds i8, ptr %26, i64 %32
  store ptr %33, ptr %27, align 8
  tail call void @_ZN3gmx6Update4Impl21update_sd_second_halfERK10t_inputreclPfiNS_8ArrayRefIK12ParticleTypeEENS6_IKfEEP7t_statePK9t_commrecP6t_nrnbP13gmx_wallcyclePNS_11ConstraintsEbb(ptr noundef nonnull align 8 dereferenceable(232) %17, ptr noundef nonnull align 8 dereferenceable(856) %1, i64 noundef %2, ptr noundef %3, i32 noundef %4, ptr noundef nonnull byval(%"class.gmx::ArrayRef.97") align 8 %15, ptr noundef nonnull byval(%"class.gmx::ArrayRef.100") align 8 %16, ptr noundef %7, ptr noundef %8, ptr noundef %9, ptr noundef %10, ptr noundef %11, i1 noundef zeroext %12, i1 noundef zeroext %13)
  ret void
}